; Function Attrs: mustprogress uwtable
define void @_ZNK7rocksdb9cassandra8RowValue9SerializeEPNSt7__cxx1112basic_stringIcSt11char_traitsIcESaIcEEE(ptr noundef nonnull readonly align 8 captures(none) dereferenceable(48) %0, ptr noundef %1) local_unnamed_addr #3 align 2 {
  %3 = load i32, ptr %0, align 8, !tbaa !87
  %4 = getelementptr inbounds nuw i8, ptr %1, i64 8
  br label %5

5:                                                ; preds = %5, %2
  %.04.i = phi i64 [ 0, %2 ], [ %12, %5 ]
  %.0.tr.i = trunc nuw i64 %.04.i to i32
  %6 = shl nuw nsw i32 %.0.tr.i, 3
  %7 = sub nuw nsw i32 24, %6
  %8 = ashr i32 %3, %7
  %9 = trunc i32 %8 to i8
  %10 = load i64, ptr %4, align 8, !tbaa !11
  %11 = tail call noundef nonnull align 8 dereferenceable(32) ptr @_ZNSt7__cxx1112basic_stringIcSt11char_traitsIcESaIcEE14_M_replace_auxEmmmc(ptr noundef nonnull align 8 dereferenceable(32) %1, i64 noundef %10, i64 noundef 0, i64 noundef 1, i8 noundef signext %9)
  %12 = add nuw nsw i64 %.04.i, 1
  %exitcond.not.i = icmp eq i64 %12, 4
  br i1 %exitcond.not.i, label %_ZN7rocksdb9cassandra9SerializeIiEEvT_PNSt7__cxx1112basic_stringIcSt11char_traitsIcESaIcEEE.exit, label %5, !llvm.loop !78

_ZN7rocksdb9cassandra9SerializeIiEEvT_PNSt7__cxx1112basic_stringIcSt11char_traitsIcESaIcEEE.exit: ; preds = %5
  %13 = getelementptr inbounds nuw i8, ptr %0, i64 8
  %14 = load i64, ptr %13, align 8, !tbaa !94
  br label %15

15:                                               ; preds = %15, %_ZN7rocksdb9cassandra9SerializeIiEEvT_PNSt7__cxx1112basic_stringIcSt11char_traitsIcESaIcEEE.exit
  %.04.i7 = phi i64 [ 0, %_ZN7rocksdb9cassandra9SerializeIiEEvT_PNSt7__cxx1112basic_stringIcSt11char_traitsIcESaIcEEE.exit ], [ %22, %15 ]
  %16 = shl nuw nsw i64 %.04.i7, 3
  %17 = sub nuw nsw i64 56, %16
  %18 = ashr i64 %14, %17
  %19 = trunc i64 %18 to i8
  %20 = load i64, ptr %4, align 8, !tbaa !11
  %21 = tail call noundef nonnull align 8 dereferenceable(32) ptr @_ZNSt7__cxx1112basic_stringIcSt11char_traitsIcESaIcEE14_M_replace_auxEmmmc(ptr noundef nonnull align 8 dereferenceable(32) %1, i64 noundef %20, i64 noundef 0, i64 noundef 1, i8 noundef signext %19)
  %22 = add nuw nsw i64 %.04.i7, 1
  %exitcond.not.i8 = icmp eq i64 %22, 8
  br i1 %exitcond.not.i8, label %_ZN7rocksdb9cassandra9SerializeIlEEvT_PNSt7__cxx1112basic_stringIcSt11char_traitsIcESaIcEEE.exit, label %15, !llvm.loop !77

_ZN7rocksdb9cassandra9SerializeIlEEvT_PNSt7__cxx1112basic_stringIcSt11char_traitsIcESaIcEEE.exit: ; preds = %15
  %23 = getelementptr inbounds nuw i8, ptr %0, i64 16
  %24 = load ptr, ptr %23, align 8, !tbaa !99
  %25 = getelementptr inbounds nuw i8, ptr %0, i64 24
  %26 = load ptr, ptr %25, align 8, !tbaa !99
  %.not12 = icmp eq ptr %24, %26
  br i1 %.not12, label %._crit_edge, label %.lr.ph

._crit_edge:                                      ; preds = %.lr.ph, %_ZN7rocksdb9cassandra9SerializeIlEEvT_PNSt7__cxx1112basic_stringIcSt11char_traitsIcESaIcEEE.exit
  ret void

.lr.ph:                                           ; preds = %_ZN7rocksdb9cassandra9SerializeIlEEvT_PNSt7__cxx1112basic_stringIcSt11char_traitsIcESaIcEEE.exit, %.lr.ph
  %.sroa.09.013 = phi ptr [ %31, %.lr.ph ], [ %24, %_ZN7rocksdb9cassandra9SerializeIlEEvT_PNSt7__cxx1112basic_stringIcSt11char_traitsIcESaIcEEE.exit ]
  %27 = load ptr, ptr %.sroa.09.013, align 8, !tbaa !44
  %28 = load ptr, ptr %27, align 8, !tbaa !4
  %29 = getelementptr inbounds nuw i8, ptr %28, i64 48
  %30 = load ptr, ptr %29, align 8
  tail call void %30(ptr noundef nonnull align 8 dereferenceable(10) %27, ptr noundef nonnull %1)
  %31 = getelementptr inbounds nuw i8, ptr %.sroa.09.013, i64 16
  %.not = icmp eq ptr %31, %26
  br i1 %.not, label %._crit_edge, label %.lr.ph
}